target datalayout = "e-m:e-p270:32:32-p271:32:32-p272:64:64-i64:64-i128:128-f80:128-n8:16:32:64-S128"
target triple = "x86_64-pc-linux-gnu"

%struct._GLFWwindow = type { ptr, i32, i32, i32, i32, i32, i32, i32, ptr, i32, %struct.GLFWvidmode, ptr, ptr, ptr, i32, i32, i32, i32, i32, i32, i32, i32, i32, i32, [8 x i8], [349 x i8], double, double, i32, %struct._GLFWcontext, %struct.anon.33, %struct._GLFWwindowWayland, %struct._GLFWwindowX11, %struct._GLFWwindowNull }
%struct.GLFWvidmode = type { i32, i32, i32, i32, i32, i32 }
%struct._GLFWcontext = type { i32, i32, i32, i32, i32, i32, i32, i32, i32, i32, i32, ptr, ptr, ptr, ptr, ptr, ptr, ptr, ptr, ptr, %struct.anon.31, %struct.anon.32, %struct._GLFWcontextGLX }
%struct.anon.31 = type { ptr, ptr, ptr, ptr }
%struct.anon.32 = type { ptr, i32, i32, ptr }
%struct._GLFWcontextGLX = type { ptr, i64 }
%struct.anon.33 = type { ptr, ptr, ptr, ptr, ptr, ptr, ptr, ptr, ptr, ptr, ptr, ptr, ptr, ptr, ptr, ptr, ptr }
%struct._GLFWwindowWayland = type { i32, i32, i32, i32, i32, i32, i32, i32, i32, i32, i32, ptr, ptr, %struct.anon.34, %struct.anon.35, %struct.anon.36, %struct.anon.37, ptr, double, double, ptr, i32, ptr, i64, i64, ptr, i32, ptr, ptr, ptr, ptr, ptr, ptr, %struct.anon.38 }
%struct.anon.34 = type { ptr }
%struct.anon.35 = type { i32, i32, i32, i32, i32, i32 }
%struct.anon.36 = type { ptr, ptr, ptr, i32 }
%struct.anon.37 = type { ptr }
%struct.anon.38 = type { i32, ptr, %struct._GLFWfallbackEdgeWayland, %struct._GLFWfallbackEdgeWayland, %struct._GLFWfallbackEdgeWayland, %struct._GLFWfallbackEdgeWayland, ptr }
%struct._GLFWfallbackEdgeWayland = type { ptr, ptr, ptr }
%struct._GLFWwindowX11 = type { i64, i64, i64, ptr, i32, i32, i32, i32, i32, i32, i32, i32, i32, i32, i32, i32, [256 x i64] }
%struct._GLFWwindowNull = type { i32, i32, i32, i32, i32, i32, i32, i32, i32, i32, i32, float }

; Function Attrs: nounwind uwtable
define hidden void @_glfwGetWindowContentScaleWayland(ptr noundef %0, ptr noundef %1, ptr noundef %2) #0 {
  %4 = alloca ptr, align 8
  %5 = alloca ptr, align 8
  %6 = alloca ptr, align 8
  store ptr %0, ptr %4, align 8, !tbaa !3
  store ptr %1, ptr %5, align 8, !tbaa !266
  store ptr %2, ptr %6, align 8, !tbaa !266
  %7 = load ptr, ptr %4, align 8, !tbaa !3
  %8 = getelementptr inbounds nuw %struct._GLFWwindow, ptr %7, i32 0, i32 31
  %9 = getelementptr inbounds nuw %struct._GLFWwindowWayland, ptr %8, i32 0, i32 27
  %10 = load ptr, ptr %9, align 8, !tbaa !128
  %11 = icmp ne ptr %10, null
  br i1 %11, label %12, label %35

12:                                               ; preds = %3
  %13 = load ptr, ptr %5, align 8, !tbaa !266
  %14 = icmp ne ptr %13, null
  br i1 %14, label %15, label %23

15:                                               ; preds = %12
  %16 = load ptr, ptr %4, align 8, !tbaa !3
  %17 = getelementptr inbounds nuw %struct._GLFWwindow, ptr %16, i32 0, i32 31
  %18 = getelementptr inbounds nuw %struct._GLFWwindowWayland, ptr %17, i32 0, i32 26
  %19 = load i32, ptr %18, align 8, !tbaa !144
  %20 = uitofp i32 %19 to float
  %21 = fdiv float %20, 1.200000e+02
  %22 = load ptr, ptr %5, align 8, !tbaa !266
  store float %21, ptr %22, align 4, !tbaa !163
  br label %23

23:                                               ; preds = %15, %12
  %24 = load ptr, ptr %6, align 8, !tbaa !266
  %25 = icmp ne ptr %24, null
  br i1 %25, label %26, label %34

26:                                               ; preds = %23
  %27 = load ptr, ptr %4, align 8, !tbaa !3
  %28 = getelementptr inbounds nuw %struct._GLFWwindow, ptr %27, i32 0, i32 31
  %29 = getelementptr inbounds nuw %struct._GLFWwindowWayland, ptr %28, i32 0, i32 26
  %30 = load i32, ptr %29, align 8, !tbaa !144
  %31 = uitofp i32 %30 to float
  %32 = fdiv float %31, 1.200000e+02
  %33 = load ptr, ptr %6, align 8, !tbaa !266
  store float %32, ptr %33, align 4, !tbaa !163
  br label %34

34:                                               ; preds = %26, %23
  br label %56

35:                                               ; preds = %3
  %36 = load ptr, ptr %5, align 8, !tbaa !266
  %37 = icmp ne ptr %36, null
  br i1 %37, label %38, label %45

38:                                               ; preds = %35
  %39 = load ptr, ptr %4, align 8, !tbaa !3
  %40 = getelementptr inbounds nuw %struct._GLFWwindow, ptr %39, i32 0, i32 31
  %41 = getelementptr inbounds nuw %struct._GLFWwindowWayland, ptr %40, i32 0, i32 21
  %42 = load i32, ptr %41, align 8, !tbaa !136
  %43 = sitofp i32 %42 to float
  %44 = load ptr, ptr %5, align 8, !tbaa !266
  store float %43, ptr %44, align 4, !tbaa !163
  br label %45

45:                                               ; preds = %38, %35
  %46 = load ptr, ptr %6, align 8, !tbaa !266
  %47 = icmp ne ptr %46, null
  br i1 %47, label %48, label %55

48:                                               ; preds = %45
  %49 = load ptr, ptr %4, align 8, !tbaa !3
  %50 = getelementptr inbounds nuw %struct._GLFWwindow, ptr %49, i32 0, i32 31
  %51 = getelementptr inbounds nuw %struct._GLFWwindowWayland, ptr %50, i32 0, i32 21
  %52 = load i32, ptr %51, align 8, !tbaa !136
  %53 = sitofp i32 %52 to float
  %54 = load ptr, ptr %6, align 8, !tbaa !266
  store float %53, ptr %54, align 4, !tbaa !163
  br label %55

55:                                               ; preds = %48, %45
  br label %56

56:                                               ; preds = %55, %34
  ret void
}