; Function Attrs: mustprogress nofree norecurse nosync nounwind willreturn memory(argmem: readwrite) uwtable
define hidden void @_glfwGetWindowContentScaleWayland(ptr noundef readonly captures(none) %0, ptr noundef writeonly captures(address_is_null) %1, ptr noundef writeonly captures(address_is_null) %2) local_unnamed_addr #4 {
  %4 = getelementptr inbounds nuw i8, ptr %0, i64 1072
  %5 = load ptr, ptr %4, align 8, !tbaa !128
  %.not = icmp eq ptr %5, null
  %.not15 = icmp eq ptr %1, null
  br i1 %.not, label %18, label %6

6:                                                ; preds = %3
  br i1 %.not15, label %12, label %7

7:                                                ; preds = %6
  %8 = getelementptr inbounds nuw i8, ptr %0, i64 1064
  %9 = load i32, ptr %8, align 8, !tbaa !139
  %10 = uitofp i32 %9 to float
  %11 = fdiv float %10, 1.200000e+02
  store float %11, ptr %1, align 4, !tbaa !248
  br label %12

12:                                               ; preds = %7, %6
  %.not18 = icmp eq ptr %2, null
  br i1 %.not18, label %28, label %13

13:                                               ; preds = %12
  %14 = getelementptr inbounds nuw i8, ptr %0, i64 1064
  %15 = load i32, ptr %14, align 8, !tbaa !139
  %16 = uitofp i32 %15 to float
  %17 = fdiv float %16, 1.200000e+02
  br label %.sink.split

18:                                               ; preds = %3
  br i1 %.not15, label %23, label %19

19:                                               ; preds = %18
  %20 = getelementptr inbounds nuw i8, ptr %0, i64 1024
  %21 = load i32, ptr %20, align 8, !tbaa !130
  %22 = sitofp i32 %21 to float
  store float %22, ptr %1, align 4, !tbaa !248
  br label %23

23:                                               ; preds = %19, %18
  %.not16 = icmp eq ptr %2, null
  br i1 %.not16, label %28, label %24

24:                                               ; preds = %23
  %25 = getelementptr inbounds nuw i8, ptr %0, i64 1024
  %26 = load i32, ptr %25, align 8, !tbaa !130
  %27 = sitofp i32 %26 to float
  br label %.sink.split

.sink.split:                                      ; preds = %13, %24
  %.sink = phi float [ %27, %24 ], [ %17, %13 ]
  store float %.sink, ptr %2, align 4, !tbaa !248
  br label %28

28:                                               ; preds = %.sink.split, %23, %12
  ret void
}